; Function Attrs: nounwind sspstrong uwtable
define internal i64 @flo_to_i(i64 noundef %0) #2 {
  %2 = and i64 %0, 3
  %3 = icmp eq i64 %2, 2
  br i1 %3, label %4, label %11

4:                                                ; preds = %1
  %.not.i.i = icmp eq i64 %0, -9223372036854775806
  br i1 %.not.i.i, label %rb_float_value_inline.exit, label %5

5:                                                ; preds = %4
  %.neg.i.i = ashr i64 %0, 63
  %6 = add nsw i64 %.neg.i.i, 2
  %7 = and i64 %0, -4
  %8 = or i64 %6, %7
  %9 = tail call noundef i64 @llvm.fshl.i64(i64 range(i64 1, 0) %8, i64 range(i64 1, 0) %8, i64 61)
  %10 = bitcast i64 %9 to double
  br label %rb_float_value_inline.exit

11:                                               ; preds = %1
  %12 = inttoptr i64 %0 to ptr
  %13 = getelementptr inbounds nuw i8, ptr %12, i64 16
  %14 = load double, ptr %13, align 8, !tbaa !24
  br label %rb_float_value_inline.exit

rb_float_value_inline.exit:                       ; preds = %4, %5, %11
  %.0.i = phi double [ %14, %11 ], [ %10, %5 ], [ 0.000000e+00, %4 ]
  %15 = fcmp ogt double %.0.i, 0.000000e+00
  %16 = tail call double @llvm.floor.f64(double %.0.i)
  %.0 = select i1 %15, double %16, double %.0.i
  %17 = fcmp olt double %.0, 0.000000e+00
  %18 = tail call double @llvm.ceil.f64(double %.0)
  %.1 = select i1 %17, double %18, double %.0
  %19 = fcmp olt double %.1, 0x43D0000000000000
  %20 = fcmp oge double %.1, 0xC3D0000000000000
  %or.cond.i = and i1 %19, %20
  br i1 %or.cond.i, label %21, label %25

21:                                               ; preds = %rb_float_value_inline.exit
  %22 = fptosi double %.1 to i64
  %23 = shl i64 %22, 1
  %24 = or disjoint i64 %23, 1
  br label %dbl2ival.exit

25:                                               ; preds = %rb_float_value_inline.exit
  %26 = tail call i64 @rb_dbl2big(double noundef %.1) #26
  br label %dbl2ival.exit

dbl2ival.exit:                                    ; preds = %21, %25
  %.0.i7 = phi i64 [ %24, %21 ], [ %26, %25 ]
  ret i64 %.0.i7
}